; Function Attrs: nounwind uwtable
define dso_local void @dbuf_free(ptr nocapture noundef %0) local_unnamed_addr #8 {
  %2 = load ptr, ptr %0, align 8
  %.not = icmp eq ptr %2, null
  br i1 %.not, label %9, label %3

3:                                                ; preds = %1
  %4 = getelementptr inbounds i8, ptr %0, i64 32
  %5 = load ptr, ptr %4, align 8
  %6 = getelementptr inbounds i8, ptr %0, i64 40
  %7 = load ptr, ptr %6, align 8
  %8 = tail call ptr %5(ptr noundef %7, ptr noundef nonnull %2, i64 noundef 0) #19
  br label %9

9:                                                ; preds = %3, %1
  tail call void @llvm.memset.p0.i64(ptr noundef nonnull align 8 dereferenceable(48) %0, i8 0, i64 48, i1 false)
  ret void
}